target datalayout = "e-m:e-p270:32:32-p271:32:32-p272:64:64-i64:64-i128:128-f80:128-n8:16:32:64-S128"
target triple = "x86_64-pc-linux-gnu"

%struct.slurm_proctrack_ops = type { ptr, ptr, ptr, ptr, ptr, ptr, ptr, ptr }
%union.pthread_attr_t = type { i64, [48 x i8] }
%struct.sig_agent_arg_t = type { i64, i32 }

@ops = internal global %struct.slurm_proctrack_ops zeroinitializer, align 8
@.str.5 = private unnamed_addr constant [14 x i8] c"/proc/%d/stat\00", align 1
@.str.6 = private unnamed_addr constant [32 x i8] c"Process %d continuing core dump\00", align 1
@.str.7 = private unnamed_addr constant [70 x i8] c"Deferring sending signal, processes in job are currently core dumping\00", align 1
@.str.16 = private unnamed_addr constant [12 x i8] c"proctrack.c\00", align 1
@__func__._spawn_signal_thread = private unnamed_addr constant [21 x i8] c"_spawn_signal_thread\00", align 1
@.str.22 = private unnamed_addr constant [22 x i8] c"pthread_attr_init: %m\00", align 1
@.str.23 = private unnamed_addr constant [26 x i8] c"pthread_attr_setscope: %m\00", align 1
@.str.24 = private unnamed_addr constant [30 x i8] c"pthread_attr_setstacksize: %m\00", align 1
@.str.25 = private unnamed_addr constant [35 x i8] c"%s: pthread_attr_setdetachstate %m\00", align 1
@.str.26 = private unnamed_addr constant [28 x i8] c"%s: pthread_create error %m\00", align 1
@.str.27 = private unnamed_addr constant [55 x i8] c"pthread_attr_destroy failed, possible memory leak!: %m\00", align 1

; Function Attrs: nounwind uwtable
define internal void @_spawn_signal_thread(i64 noundef %0, i32 noundef %1) #0 {
  %3 = alloca i64, align 8
  %4 = alloca i32, align 4
  %5 = alloca ptr, align 8
  %6 = alloca i64, align 8
  %7 = alloca %union.pthread_attr_t, align 8
  %8 = alloca i32, align 4
  %9 = alloca i32, align 4
  %10 = alloca i32, align 4
  store i64 %0, ptr %3, align 8
  store i32 %1, ptr %4, align 4
  call void @llvm.lifetime.start.p0(i64 8, ptr %5) #8
  %11 = call ptr @slurm_xcalloc(i64 noundef 1, i64 noundef 16, i1 noundef zeroext true, i1 noundef zeroext false, ptr noundef @.str.16, i32 noundef 350, ptr noundef @__func__._spawn_signal_thread)
  store ptr %11, ptr %5, align 8
  %12 = load i64, ptr %3, align 8
  %13 = load ptr, ptr %5, align 8
  %14 = getelementptr inbounds nuw %struct.sig_agent_arg_t, ptr %13, i32 0, i32 0
  store i64 %12, ptr %14, align 8
  %15 = load i32, ptr %4, align 4
  %16 = load ptr, ptr %5, align 8
  %17 = getelementptr inbounds nuw %struct.sig_agent_arg_t, ptr %16, i32 0, i32 1
  store i32 %15, ptr %17, align 8
  br label %18

18:                                               ; preds = %2
  call void @llvm.lifetime.start.p0(i64 8, ptr %6) #8
  call void @llvm.lifetime.start.p0(i64 56, ptr %7) #8
  call void @llvm.lifetime.start.p0(i64 4, ptr %8) #8
  br label %19

19:                                               ; preds = %18
  call void @llvm.lifetime.start.p0(i64 4, ptr %9) #8
  %20 = call i32 @pthread_attr_init(ptr noundef %7) #8
  store i32 %20, ptr %9, align 4
  %21 = load i32, ptr %9, align 4
  %22 = icmp ne i32 %21, 0
  br i1 %22, label %23, label %26

23:                                               ; preds = %19
  %24 = load i32, ptr %9, align 4
  %25 = call ptr @__errno_location() #9
  store i32 %24, ptr %25, align 4
  call void (ptr, ...) @fatal(ptr noundef @.str.22) #10
  unreachable

26:                                               ; preds = %19
  %27 = call i32 @pthread_attr_setscope(ptr noundef %7, i32 noundef 0) #8
  store i32 %27, ptr %9, align 4
  %28 = load i32, ptr %9, align 4
  %29 = icmp ne i32 %28, 0
  br i1 %29, label %30, label %34

30:                                               ; preds = %26
  %31 = load i32, ptr %9, align 4
  %32 = call ptr @__errno_location() #9
  store i32 %31, ptr %32, align 4
  %33 = call i32 (ptr, ...) @error(ptr noundef @.str.23)
  br label %34

34:                                               ; preds = %30, %26
  %35 = call i32 @pthread_attr_setstacksize(ptr noundef %7, i64 noundef 1048576) #8
  store i32 %35, ptr %9, align 4
  %36 = load i32, ptr %9, align 4
  %37 = icmp ne i32 %36, 0
  br i1 %37, label %38, label %42

38:                                               ; preds = %34
  %39 = load i32, ptr %9, align 4
  %40 = call ptr @__errno_location() #9
  store i32 %39, ptr %40, align 4
  %41 = call i32 (ptr, ...) @error(ptr noundef @.str.24)
  br label %42

42:                                               ; preds = %38, %34
  call void @llvm.lifetime.end.p0(i64 4, ptr %9) #8
  br label %43

43:                                               ; preds = %42
  br label %44

44:                                               ; preds = %43
  %45 = call i32 @pthread_attr_setdetachstate(ptr noundef %7, i32 noundef 1) #8
  store i32 %45, ptr %8, align 4
  %46 = load i32, ptr %8, align 4
  %47 = icmp ne i32 %46, 0
  br i1 %47, label %48, label %51

48:                                               ; preds = %44
  %49 = load i32, ptr %8, align 4
  %50 = call ptr @__errno_location() #9
  store i32 %49, ptr %50, align 4
  call void (ptr, ...) @fatal(ptr noundef @.str.25, ptr noundef @__func__._spawn_signal_thread) #10
  unreachable

51:                                               ; preds = %44
  %52 = load ptr, ptr %5, align 8
  %53 = call i32 @pthread_create(ptr noundef %6, ptr noundef %7, ptr noundef @_sig_agent, ptr noundef %52) #8
  store i32 %53, ptr %8, align 4
  %54 = load i32, ptr %8, align 4
  %55 = icmp ne i32 %54, 0
  br i1 %55, label %56, label %59

56:                                               ; preds = %51
  %57 = load i32, ptr %8, align 4
  %58 = call ptr @__errno_location() #9
  store i32 %57, ptr %58, align 4
  call void (ptr, ...) @fatal(ptr noundef @.str.26, ptr noundef @__func__._spawn_signal_thread) #10
  unreachable

59:                                               ; preds = %51
  br label %60

60:                                               ; preds = %59
  call void @llvm.lifetime.start.p0(i64 4, ptr %10) #8
  %61 = call i32 @pthread_attr_destroy(ptr noundef %7) #8
  store i32 %61, ptr %10, align 4
  %62 = load i32, ptr %10, align 4
  %63 = icmp ne i32 %62, 0
  br i1 %63, label %64, label %68

64:                                               ; preds = %60
  %65 = load i32, ptr %10, align 4
  %66 = call ptr @__errno_location() #9
  store i32 %65, ptr %66, align 4
  %67 = call i32 (ptr, ...) @error(ptr noundef @.str.27)
  br label %68

68:                                               ; preds = %64, %60
  call void @llvm.lifetime.end.p0(i64 4, ptr %10) #8
  br label %69

69:                                               ; preds = %68
  br label %70

70:                                               ; preds = %69
  call void @llvm.lifetime.end.p0(i64 4, ptr %8) #8
  call void @llvm.lifetime.end.p0(i64 56, ptr %7) #8
  call void @llvm.lifetime.end.p0(i64 8, ptr %6) #8
  br label %71

71:                                               ; preds = %70
  br label %72

72:                                               ; preds = %71
  call void @llvm.lifetime.end.p0(i64 8, ptr %5) #8
  ret void
}

; Function Attrs: nounwind uwtable
define dso_local i32 @proctrack_g_get_pids(i64 noundef %0, ptr noundef %1, ptr noundef %2) #0 {
  %4 = alloca i64, align 8
  %5 = alloca ptr, align 8
  %6 = alloca ptr, align 8
  store i64 %0, ptr %4, align 8
  store ptr %1, ptr %5, align 8
  store ptr %2, ptr %6, align 8
  %7 = load ptr, ptr getelementptr inbounds nuw (%struct.slurm_proctrack_ops, ptr @ops, i32 0, i32 7), align 8
  %8 = load i64, ptr %4, align 8
  %9 = load ptr, ptr %5, align 8
  %10 = load ptr, ptr %6, align 8
  %11 = call i32 %7(i64 noundef %8, ptr noundef %9, ptr noundef %10)
  ret i32 %11
}

; Function Attrs: nounwind uwtable
define dso_local i32 @proctrack_g_signal(i64 noundef %0, i32 noundef %1) #0 {
  %3 = alloca i32, align 4
  %4 = alloca i64, align 8
  %5 = alloca i32, align 4
  %6 = alloca ptr, align 8
  %7 = alloca i32, align 4
  %8 = alloca i32, align 4
  %9 = alloca i32, align 4
  %10 = alloca i32, align 4
  %11 = alloca ptr, align 8
  %12 = alloca i32, align 4
  store i64 %0, ptr %4, align 8
  store i32 %1, ptr %5, align 4
  %13 = load i32, ptr %5, align 4
  %14 = icmp eq i32 %13, 9
  br i1 %14, label %15, label %105

15:                                               ; preds = %2
  call void @llvm.lifetime.start.p0(i64 8, ptr %6) #8
  store ptr null, ptr %6, align 8
  call void @llvm.lifetime.start.p0(i64 4, ptr %7) #8
  call void @llvm.lifetime.start.p0(i64 4, ptr %8) #8
  call void @llvm.lifetime.start.p0(i64 4, ptr %9) #8
  store i32 0, ptr %9, align 4
  call void @llvm.lifetime.start.p0(i64 4, ptr %10) #8
  store i32 0, ptr %10, align 4
  call void @llvm.lifetime.start.p0(i64 8, ptr %11) #8
  store ptr null, ptr %11, align 8
  %16 = load i64, ptr %4, align 8
  %17 = call i32 @proctrack_g_get_pids(i64 noundef %16, ptr noundef %6, ptr noundef %9)
  %18 = icmp eq i32 %17, 0
  br i1 %18, label %19, label %101

19:                                               ; preds = %15
  store i32 0, ptr %8, align 4
  br label %20

20:                                               ; preds = %81, %19
  %21 = load i32, ptr %8, align 4
  %22 = icmp slt i32 %21, 2
  br i1 %22, label %23, label %84

23:                                               ; preds = %20
  %24 = load i32, ptr %8, align 4
  %25 = icmp ne i32 %24, 0
  br i1 %25, label %26, label %28

26:                                               ; preds = %23
  %27 = call i32 @sleep(i32 noundef 2)
  br label %28

28:                                               ; preds = %26, %23
  store i32 0, ptr %10, align 4
  store i32 0, ptr %7, align 4
  br label %29

29:                                               ; preds = %73, %28
  %30 = load i32, ptr %7, align 4
  %31 = load i32, ptr %9, align 4
  %32 = icmp slt i32 %30, %31
  br i1 %32, label %33, label %76

33:                                               ; preds = %29
  %34 = load ptr, ptr %6, align 8
  %35 = load i32, ptr %7, align 4
  %36 = sext i32 %35 to i64
  %37 = getelementptr inbounds i32, ptr %34, i64 %36
  %38 = load i32, ptr %37, align 4
  %39 = icmp ne i32 %38, 0
  br i1 %39, label %41, label %40

40:                                               ; preds = %33
  br label %73

41:                                               ; preds = %33
  %42 = load ptr, ptr %6, align 8
  %43 = load i32, ptr %7, align 4
  %44 = sext i32 %43 to i64
  %45 = getelementptr inbounds i32, ptr %42, i64 %44
  %46 = load i32, ptr %45, align 4
  call void (ptr, ptr, ...) @_xstrfmtcat(ptr noundef %11, ptr noundef @.str.5, i32 noundef %46)
  %47 = load ptr, ptr %11, align 8
  %48 = call zeroext i1 @_test_core_dumping(ptr noundef %47)
  br i1 %48, label %49, label %67

49:                                               ; preds = %41
  br label %50

50:                                               ; preds = %49
  br label %51

51:                                               ; preds = %50
  %52 = call i32 @get_log_level()
  %53 = icmp sge i32 %52, 5
  br i1 %53, label %54, label %60

54:                                               ; preds = %51
  %55 = load ptr, ptr %6, align 8
  %56 = load i32, ptr %7, align 4
  %57 = sext i32 %56 to i64
  %58 = getelementptr inbounds i32, ptr %55, i64 %57
  %59 = load i32, ptr %58, align 4
  call void (i32, ptr, ...) @log_var(i32 noundef 5, ptr noundef @.str.6, i32 noundef %59)
  br label %60

60:                                               ; preds = %54, %51
  br label %61

61:                                               ; preds = %60
  br label %62

62:                                               ; preds = %61
  br label %63

63:                                               ; preds = %62
  br label %64

64:                                               ; preds = %63
  %65 = load i32, ptr %10, align 4
  %66 = add nsw i32 %65, 1
  store i32 %66, ptr %10, align 4
  br label %72

67:                                               ; preds = %41
  %68 = load ptr, ptr %6, align 8
  %69 = load i32, ptr %7, align 4
  %70 = sext i32 %69 to i64
  %71 = getelementptr inbounds i32, ptr %68, i64 %70
  store i32 0, ptr %71, align 4
  br label %72

72:                                               ; preds = %67, %64
  call void @slurm_xfree(ptr noundef %11)
  br label %73

73:                                               ; preds = %72, %40
  %74 = load i32, ptr %7, align 4
  %75 = add nsw i32 %74, 1
  store i32 %75, ptr %7, align 4
  br label %29, !llvm.loop !11

76:                                               ; preds = %29
  %77 = load i32, ptr %10, align 4
  %78 = icmp eq i32 %77, 0
  br i1 %78, label %79, label %80

79:                                               ; preds = %76
  br label %84

80:                                               ; preds = %76
  br label %81

81:                                               ; preds = %80
  %82 = load i32, ptr %8, align 4
  %83 = add nsw i32 %82, 1
  store i32 %83, ptr %8, align 4
  br label %20, !llvm.loop !12

84:                                               ; preds = %79, %20
  call void @slurm_xfree(ptr noundef %6)
  %85 = load i32, ptr %10, align 4
  %86 = icmp ne i32 %85, 0
  br i1 %86, label %87, label %100

87:                                               ; preds = %84
  br label %88

88:                                               ; preds = %87
  br label %89

89:                                               ; preds = %88
  %90 = call i32 @get_log_level()
  %91 = icmp sge i32 %90, 3
  br i1 %91, label %92, label %93

92:                                               ; preds = %89
  call void (i32, ptr, ...) @log_var(i32 noundef 3, ptr noundef @.str.7)
  br label %93

93:                                               ; preds = %92, %89
  br label %94

94:                                               ; preds = %93
  br label %95

95:                                               ; preds = %94
  br label %96

96:                                               ; preds = %95
  br label %97

97:                                               ; preds = %96
  %98 = load i64, ptr %4, align 8
  %99 = load i32, ptr %5, align 4
  call void @_spawn_signal_thread(i64 noundef %98, i32 noundef %99)
  store i32 0, ptr %3, align 4
  store i32 1, ptr %12, align 4
  br label %102

100:                                              ; preds = %84
  br label %101

101:                                              ; preds = %100, %15
  store i32 0, ptr %12, align 4
  br label %102

102:                                              ; preds = %101, %97
  call void @llvm.lifetime.end.p0(i64 8, ptr %11) #8
  call void @llvm.lifetime.end.p0(i64 4, ptr %10) #8
  call void @llvm.lifetime.end.p0(i64 4, ptr %9) #8
  call void @llvm.lifetime.end.p0(i64 4, ptr %8) #8
  call void @llvm.lifetime.end.p0(i64 4, ptr %7) #8
  call void @llvm.lifetime.end.p0(i64 8, ptr %6) #8
  %103 = load i32, ptr %12, align 4
  switch i32 %103, label %112 [
    i32 0, label %104
    i32 1, label %110
  ]

104:                                              ; preds = %102
  br label %105

105:                                              ; preds = %104, %2
  %106 = load ptr, ptr getelementptr inbounds nuw (%struct.slurm_proctrack_ops, ptr @ops, i32 0, i32 2), align 8
  %107 = load i64, ptr %4, align 8
  %108 = load i32, ptr %5, align 4
  %109 = call i32 %106(i64 noundef %107, i32 noundef %108)
  store i32 %109, ptr %3, align 4
  br label %110

110:                                              ; preds = %105, %102
  %111 = load i32, ptr %3, align 4
  ret i32 %111

112:                                              ; preds = %102
  unreachable
}