; Function Attrs: nounwind uwtable
define dso_local i32 @proctrack_g_signal(i64 noundef %0, i32 noundef %1) local_unnamed_addr #0 {
  %3 = alloca i64, align 8
  %4 = alloca %union.pthread_attr_t, align 8
  %5 = alloca ptr, align 8
  %6 = alloca i32, align 4
  %7 = alloca ptr, align 8
  %8 = icmp eq i32 %1, 9
  br i1 %8, label %9, label %78

9:                                                ; preds = %2
  call void @llvm.lifetime.start.p0(i64 8, ptr nonnull %5) #10
  store ptr null, ptr %5, align 8
  call void @llvm.lifetime.start.p0(i64 4, ptr nonnull %6) #10
  store i32 0, ptr %6, align 4
  call void @llvm.lifetime.start.p0(i64 8, ptr nonnull %7) #10
  store ptr null, ptr %7, align 8
  %10 = load ptr, ptr getelementptr inbounds nuw (i8, ptr @ops, i64 56), align 8
  %11 = call i32 %10(i64 noundef %0, ptr noundef nonnull %5, ptr noundef nonnull %6) #10
  %12 = icmp eq i32 %11, 0
  br i1 %12, label %.preheader, label %.thread31

13:                                               ; preds = %._crit_edge
  br i1 %.not, label %.preheader, label %44, !llvm.loop !11

.preheader:                                       ; preds = %9, %13
  %.not = phi i1 [ false, %13 ], [ true, %9 ]
  br i1 %.not, label %16, label %14

14:                                               ; preds = %.preheader
  %15 = call i32 @sleep(i32 noundef 2) #10
  br label %16

16:                                               ; preds = %14, %.preheader
  %17 = load i32, ptr %6, align 4
  %18 = icmp sgt i32 %17, 0
  br i1 %18, label %.lr.ph, label %.thread

.lr.ph:                                           ; preds = %16, %39
  %19 = phi i32 [ %40, %39 ], [ %17, %16 ]
  %indvars.iv = phi i64 [ %indvars.iv.next, %39 ], [ 0, %16 ]
  %.236 = phi i32 [ %.3, %39 ], [ 0, %16 ]
  %20 = load ptr, ptr %5, align 8
  %21 = getelementptr inbounds nuw i32, ptr %20, i64 %indvars.iv
  %22 = load i32, ptr %21, align 4
  %.not28 = icmp eq i32 %22, 0
  br i1 %.not28, label %39, label %23

23:                                               ; preds = %.lr.ph
  call void (ptr, ptr, ...) @_xstrfmtcat(ptr noundef nonnull %7, ptr noundef nonnull @.str.5, i32 noundef %22) #10
  %24 = load ptr, ptr %7, align 8
  %25 = call fastcc zeroext i1 @_test_core_dumping(ptr noundef %24)
  br i1 %25, label %26, label %35

26:                                               ; preds = %23
  %27 = call i32 @get_log_level() #10
  %28 = icmp sgt i32 %27, 4
  br i1 %28, label %29, label %33

29:                                               ; preds = %26
  %30 = load ptr, ptr %5, align 8
  %31 = getelementptr inbounds nuw i32, ptr %30, i64 %indvars.iv
  %32 = load i32, ptr %31, align 4
  call void (i32, ptr, ...) @log_var(i32 noundef 5, ptr noundef nonnull @.str.6, i32 noundef %32) #10
  br label %33

33:                                               ; preds = %29, %26
  %34 = add nsw i32 %.236, 1
  br label %38

35:                                               ; preds = %23
  %36 = load ptr, ptr %5, align 8
  %37 = getelementptr inbounds nuw i32, ptr %36, i64 %indvars.iv
  store i32 0, ptr %37, align 4
  br label %38

38:                                               ; preds = %35, %33
  %.4 = phi i32 [ %34, %33 ], [ %.236, %35 ]
  call void @slurm_xfree(ptr noundef nonnull %7) #10
  %.pre = load i32, ptr %6, align 4
  br label %39

39:                                               ; preds = %.lr.ph, %38
  %40 = phi i32 [ %.pre, %38 ], [ %19, %.lr.ph ]
  %.3 = phi i32 [ %.4, %38 ], [ %.236, %.lr.ph ]
  %indvars.iv.next = add nuw nsw i64 %indvars.iv, 1
  %41 = sext i32 %40 to i64
  %42 = icmp slt i64 %indvars.iv.next, %41
  br i1 %42, label %.lr.ph, label %._crit_edge, !llvm.loop !12

._crit_edge:                                      ; preds = %39
  %43 = icmp eq i32 %.3, 0
  br i1 %43, label %.thread, label %13

.thread:                                          ; preds = %16, %._crit_edge
  call void @slurm_xfree(ptr noundef nonnull %5) #10
  br label %.thread31

44:                                               ; preds = %13
  call void @slurm_xfree(ptr noundef nonnull %5) #10
  %45 = call i32 @get_log_level() #10
  %46 = icmp sgt i32 %45, 2
  br i1 %46, label %47, label %48

47:                                               ; preds = %44
  call void (i32, ptr, ...) @log_var(i32 noundef 3, ptr noundef nonnull @.str.7) #10
  br label %48

48:                                               ; preds = %47, %44
  %49 = call ptr @slurm_xcalloc(i64 noundef 1, i64 noundef 16, i1 noundef zeroext true, i1 noundef zeroext false, ptr noundef nonnull @.str.16, i32 noundef 350, ptr noundef nonnull @__func__._spawn_signal_thread) #10
  store i64 %0, ptr %49, align 8
  %50 = getelementptr inbounds nuw i8, ptr %49, i64 8
  store i32 9, ptr %50, align 8
  call void @llvm.lifetime.start.p0(i64 8, ptr nonnull %3) #10
  call void @llvm.lifetime.start.p0(i64 56, ptr nonnull %4) #10
  %51 = call i32 @pthread_attr_init(ptr noundef nonnull %4) #10
  %.not.i = icmp eq i32 %51, 0
  br i1 %.not.i, label %54, label %52

52:                                               ; preds = %48
  %53 = tail call ptr @__errno_location() #11
  store i32 %51, ptr %53, align 4
  call void (ptr, ...) @fatal(ptr noundef nonnull @.str.22) #12
  unreachable

54:                                               ; preds = %48
  %55 = call i32 @pthread_attr_setscope(ptr noundef nonnull %4, i32 noundef 0) #10
  %.not21.i = icmp eq i32 %55, 0
  br i1 %.not21.i, label %59, label %56

56:                                               ; preds = %54
  %57 = tail call ptr @__errno_location() #11
  store i32 %55, ptr %57, align 4
  %58 = call i32 (ptr, ...) @error(ptr noundef nonnull @.str.23) #10
  br label %59

59:                                               ; preds = %56, %54
  %60 = call i32 @pthread_attr_setstacksize(ptr noundef nonnull %4, i64 noundef 1048576) #10
  %.not22.i = icmp eq i32 %60, 0
  br i1 %.not22.i, label %64, label %61

61:                                               ; preds = %59
  %62 = tail call ptr @__errno_location() #11
  store i32 %60, ptr %62, align 4
  %63 = call i32 (ptr, ...) @error(ptr noundef nonnull @.str.24) #10
  br label %64

64:                                               ; preds = %61, %59
  %65 = call i32 @pthread_attr_setdetachstate(ptr noundef nonnull %4, i32 noundef 1) #10
  %.not23.i = icmp eq i32 %65, 0
  br i1 %.not23.i, label %68, label %66

66:                                               ; preds = %64
  %67 = tail call ptr @__errno_location() #11
  store i32 %65, ptr %67, align 4
  call void (ptr, ...) @fatal(ptr noundef nonnull @.str.25, ptr noundef nonnull @__func__._spawn_signal_thread) #12
  unreachable

68:                                               ; preds = %64
  %69 = call i32 @pthread_create(ptr noundef nonnull %3, ptr noundef nonnull %4, ptr noundef nonnull @_sig_agent, ptr noundef nonnull %49) #10
  %.not24.i = icmp eq i32 %69, 0
  br i1 %.not24.i, label %72, label %70

70:                                               ; preds = %68
  %71 = tail call ptr @__errno_location() #11
  store i32 %69, ptr %71, align 4
  call void (ptr, ...) @fatal(ptr noundef nonnull @.str.26, ptr noundef nonnull @__func__._spawn_signal_thread) #12
  unreachable

72:                                               ; preds = %68
  %73 = call i32 @pthread_attr_destroy(ptr noundef nonnull %4) #10
  %.not25.i = icmp eq i32 %73, 0
  br i1 %.not25.i, label %77, label %74

74:                                               ; preds = %72
  %75 = tail call ptr @__errno_location() #11
  store i32 %73, ptr %75, align 4
  %76 = call i32 (ptr, ...) @error(ptr noundef nonnull @.str.27) #10
  br label %77

.thread31:                                        ; preds = %9, %.thread
  call void @llvm.lifetime.end.p0(i64 8, ptr nonnull %7) #10
  call void @llvm.lifetime.end.p0(i64 4, ptr nonnull %6) #10
  call void @llvm.lifetime.end.p0(i64 8, ptr nonnull %5) #10
  br label %78

77:                                               ; preds = %74, %72
  call void @llvm.lifetime.end.p0(i64 56, ptr nonnull %4) #10
  call void @llvm.lifetime.end.p0(i64 8, ptr nonnull %3) #10
  call void @llvm.lifetime.end.p0(i64 8, ptr nonnull %7) #10
  call void @llvm.lifetime.end.p0(i64 4, ptr nonnull %6) #10
  call void @llvm.lifetime.end.p0(i64 8, ptr nonnull %5) #10
  br label %81

78:                                               ; preds = %.thread31, %2
  %79 = load ptr, ptr getelementptr inbounds nuw (i8, ptr @ops, i64 16), align 8
  %80 = call i32 %79(i64 noundef %0, i32 noundef %1) #10
  br label %81

81:                                               ; preds = %77, %78
  %.124 = phi i32 [ 0, %77 ], [ %80, %78 ]
  ret i32 %.124
}